target datalayout = "e-m:e-p270:32:32-p271:32:32-p272:64:64-i64:64-i128:128-f80:128-n8:16:32:64-S128"
target triple = "x86_64-pc-linux-gnu"

%struct.Vec_Bit_t_ = type { i32, i32, ptr }

; Function Attrs: inlinehint nounwind uwtable
define internal i32 @Vec_BitCountWord(i32 noundef %0) #2 {
  %2 = alloca i32, align 4
  store i32 %0, ptr %2, align 4, !tbaa !15
  %3 = load i32, ptr %2, align 4, !tbaa !15
  %4 = and i32 %3, 1431655765
  %5 = load i32, ptr %2, align 4, !tbaa !15
  %6 = lshr i32 %5, 1
  %7 = and i32 %6, 1431655765
  %8 = add i32 %4, %7
  store i32 %8, ptr %2, align 4, !tbaa !15
  %9 = load i32, ptr %2, align 4, !tbaa !15
  %10 = and i32 %9, 858993459
  %11 = load i32, ptr %2, align 4, !tbaa !15
  %12 = lshr i32 %11, 2
  %13 = and i32 %12, 858993459
  %14 = add i32 %10, %13
  store i32 %14, ptr %2, align 4, !tbaa !15
  %15 = load i32, ptr %2, align 4, !tbaa !15
  %16 = and i32 %15, 252645135
  %17 = load i32, ptr %2, align 4, !tbaa !15
  %18 = lshr i32 %17, 4
  %19 = and i32 %18, 252645135
  %20 = add i32 %16, %19
  store i32 %20, ptr %2, align 4, !tbaa !15
  %21 = load i32, ptr %2, align 4, !tbaa !15
  %22 = and i32 %21, 16711935
  %23 = load i32, ptr %2, align 4, !tbaa !15
  %24 = lshr i32 %23, 8
  %25 = and i32 %24, 16711935
  %26 = add i32 %22, %25
  store i32 %26, ptr %2, align 4, !tbaa !15
  %27 = load i32, ptr %2, align 4, !tbaa !15
  %28 = and i32 %27, 65535
  %29 = load i32, ptr %2, align 4, !tbaa !15
  %30 = lshr i32 %29, 16
  %31 = add i32 %28, %30
  ret i32 %31
}

; Function Attrs: inlinehint nounwind uwtable
define internal i32 @Vec_BitCount(ptr noundef %0) #2 {
  %2 = alloca ptr, align 8
  %3 = alloca ptr, align 8
  %4 = alloca i32, align 4
  %5 = alloca i32, align 4
  %6 = alloca i32, align 4
  store ptr %0, ptr %2, align 8, !tbaa !37
  call void @llvm.lifetime.start.p0(i64 8, ptr %3) #13
  %7 = load ptr, ptr %2, align 8, !tbaa !37
  %8 = getelementptr inbounds nuw %struct.Vec_Bit_t_, ptr %7, i32 0, i32 2
  %9 = load ptr, ptr %8, align 8, !tbaa !41
  store ptr %9, ptr %3, align 8, !tbaa !51
  call void @llvm.lifetime.start.p0(i64 4, ptr %4) #13
  %10 = load ptr, ptr %2, align 8, !tbaa !37
  %11 = getelementptr inbounds nuw %struct.Vec_Bit_t_, ptr %10, i32 0, i32 1
  %12 = load i32, ptr %11, align 4, !tbaa !58
  %13 = ashr i32 %12, 5
  %14 = load ptr, ptr %2, align 8, !tbaa !37
  %15 = getelementptr inbounds nuw %struct.Vec_Bit_t_, ptr %14, i32 0, i32 1
  %16 = load i32, ptr %15, align 4, !tbaa !58
  %17 = and i32 %16, 31
  %18 = icmp sgt i32 %17, 0
  %19 = zext i1 %18 to i32
  %20 = add nsw i32 %13, %19
  store i32 %20, ptr %4, align 4, !tbaa !15
  call void @llvm.lifetime.start.p0(i64 4, ptr %5) #13
  call void @llvm.lifetime.start.p0(i64 4, ptr %6) #13
  store i32 0, ptr %6, align 4, !tbaa !15
  %21 = load ptr, ptr %2, align 8, !tbaa !37
  %22 = getelementptr inbounds nuw %struct.Vec_Bit_t_, ptr %21, i32 0, i32 1
  %23 = load i32, ptr %22, align 4, !tbaa !58
  %24 = and i32 %23, 31
  %25 = icmp ne i32 %24, 0
  br i1 %25, label %26, label %60

26:                                               ; preds = %1
  store i32 0, ptr %5, align 4, !tbaa !15
  br label %27

27:                                               ; preds = %41, %26
  %28 = load i32, ptr %5, align 4, !tbaa !15
  %29 = load i32, ptr %4, align 4, !tbaa !15
  %30 = sub nsw i32 %29, 1
  %31 = icmp slt i32 %28, %30
  br i1 %31, label %32, label %44

32:                                               ; preds = %27
  %33 = load ptr, ptr %3, align 8, !tbaa !51
  %34 = load i32, ptr %5, align 4, !tbaa !15
  %35 = sext i32 %34 to i64
  %36 = getelementptr inbounds i32, ptr %33, i64 %35
  %37 = load i32, ptr %36, align 4, !tbaa !15
  %38 = call i32 @Vec_BitCountWord(i32 noundef %37)
  %39 = load i32, ptr %6, align 4, !tbaa !15
  %40 = add nsw i32 %39, %38
  store i32 %40, ptr %6, align 4, !tbaa !15
  br label %41

41:                                               ; preds = %32
  %42 = load i32, ptr %5, align 4, !tbaa !15
  %43 = add nsw i32 %42, 1
  store i32 %43, ptr %5, align 4, !tbaa !15
  br label %27, !llvm.loop !92

44:                                               ; preds = %27
  %45 = load ptr, ptr %3, align 8, !tbaa !51
  %46 = load i32, ptr %5, align 4, !tbaa !15
  %47 = sext i32 %46 to i64
  %48 = getelementptr inbounds i32, ptr %45, i64 %47
  %49 = load i32, ptr %48, align 4, !tbaa !15
  %50 = load ptr, ptr %2, align 8, !tbaa !37
  %51 = getelementptr inbounds nuw %struct.Vec_Bit_t_, ptr %50, i32 0, i32 1
  %52 = load i32, ptr %51, align 4, !tbaa !58
  %53 = and i32 %52, 31
  %54 = shl i32 -1, %53
  %55 = xor i32 %54, -1
  %56 = and i32 %49, %55
  %57 = call i32 @Vec_BitCountWord(i32 noundef %56)
  %58 = load i32, ptr %6, align 4, !tbaa !15
  %59 = add nsw i32 %58, %57
  store i32 %59, ptr %6, align 4, !tbaa !15
  br label %78

60:                                               ; preds = %1
  store i32 0, ptr %5, align 4, !tbaa !15
  br label %61

61:                                               ; preds = %74, %60
  %62 = load i32, ptr %5, align 4, !tbaa !15
  %63 = load i32, ptr %4, align 4, !tbaa !15
  %64 = icmp slt i32 %62, %63
  br i1 %64, label %65, label %77

65:                                               ; preds = %61
  %66 = load ptr, ptr %3, align 8, !tbaa !51
  %67 = load i32, ptr %5, align 4, !tbaa !15
  %68 = sext i32 %67 to i64
  %69 = getelementptr inbounds i32, ptr %66, i64 %68
  %70 = load i32, ptr %69, align 4, !tbaa !15
  %71 = call i32 @Vec_BitCountWord(i32 noundef %70)
  %72 = load i32, ptr %6, align 4, !tbaa !15
  %73 = add nsw i32 %72, %71
  store i32 %73, ptr %6, align 4, !tbaa !15
  br label %74

74:                                               ; preds = %65
  %75 = load i32, ptr %5, align 4, !tbaa !15
  %76 = add nsw i32 %75, 1
  store i32 %76, ptr %5, align 4, !tbaa !15
  br label %61, !llvm.loop !93

77:                                               ; preds = %61
  br label %78

78:                                               ; preds = %77, %44
  %79 = load i32, ptr %6, align 4, !tbaa !15
  call void @llvm.lifetime.end.p0(i64 4, ptr %6) #13
  call void @llvm.lifetime.end.p0(i64 4, ptr %5) #13
  call void @llvm.lifetime.end.p0(i64 4, ptr %4) #13
  call void @llvm.lifetime.end.p0(i64 8, ptr %3) #13
  ret i32 %79
}